Certificate:
    Data:
        Version: 3 (0x2)
        Serial Number:
            45:6e:33:c5:a1:61:54:8c:95:c7:7f:8b:5d:07:5e:43
        Signature Algorithm: sha256WithRSAEncryption
        Issuer: CN=devops@magi.blue
        Validity
            Not Before: Oct 27 11:22:14 2024 GMT
            Not After : Oct 26 11:22:14 2029 GMT
        Subject: CN=server
        Subject Public Key Info:
            Public Key Algorithm: rsaEncryption
                Public-Key: (2048 bit)
                Modulus:
                    00:a1:54:20:8f:fd:9d:74:cf:b4:7b:80:6d:67:df:
                    33:ac:4a:13:5b:3e:48:b7:82:2b:84:bd:d8:75:ac:
                    3e:42:f3:32:72:b0:71:b9:7b:7d:cc:01:3f:b2:60:
                    af:36:d0:f9:51:4f:ec:51:08:3b:31:b5:e3:f2:05:
                    49:52:5d:18:5e:62:91:1c:4d:0b:d4:b7:5d:4e:9b:
                    28:dd:e7:1c:e5:e2:26:8b:5d:58:9f:1f:92:d0:3a:
                    65:04:9c:c9:4e:ce:60:d3:43:fd:8e:69:a6:96:ab:
                    29:68:bd:97:04:44:5a:1d:2c:fe:ab:9f:3d:9e:25:
                    fc:2c:27:f0:52:23:0d:c3:ac:b0:a7:de:6f:3e:ca:
                    06:df:8b:09:9a:23:d9:29:2c:84:03:89:5b:2b:f5:
                    d3:f4:17:e6:7a:5d:49:61:b1:a3:63:34:3c:c2:e4:
                    2f:3c:c1:3d:d4:08:40:a3:5b:ce:11:7f:44:86:b8:
                    15:e3:92:a8:e3:1a:5c:02:14:41:48:ba:56:3c:69:
                    90:33:96:30:e1:58:73:81:18:d4:95:58:f5:1c:0b:
                    91:6c:37:e8:63:d8:28:49:69:f3:5d:b2:35:a5:cf:
                    48:e9:c9:ed:41:09:05:21:7c:d9:e6:b4:35:a5:7f:
                    60:2b:51:c8:28:87:60:14:f0:c4:81:df:8e:81:58:
                    cc:a7
                Exponent: 65537 (0x10001)
        X509v3 extensions:
            X509v3 Basic Constraints: 
                CA:FALSE
            X509v3 Subject Key Identifier: 
                E0:9F:0D:47:86:34:06:DF:A0:A9:38:AD:54:90:06:2D:34:A2:EB:46
            X509v3 Authority Key Identifier: 
                keyid:00:63:51:24:78:F3:35:4D:BA:3A:BE:84:E5:24:83:CD:73:BF:5D:FB
                DirName:/CN=devops@magi.blue
                serial:58:4E:49:83:6A:F8:FA:CA:6A:05:FA:43:2C:49:65:E8:ED:98:99:9E
            X509v3 Extended Key Usage: 
                TLS Web Server Authentication
            X509v3 Key Usage: 
                Digital Signature, Key Encipherment
            X509v3 Subject Alternative Name: 
                DNS:*.magi.vpn, DNS:*.magi.blue
    Signature Algorithm: sha256WithRSAEncryption
    Signature Value:
        69:b6:e9:1e:0e:eb:ad:14:07:b0:63:19:97:5b:c4:4b:96:76:
        23:19:3a:0d:36:11:b6:80:c9:f5:8d:02:ad:5d:80:5c:a4:5d:
        10:5d:6b:e8:9e:3b:2a:97:88:00:61:f2:bd:5d:25:9d:60:58:
        e0:67:17:9a:d9:1a:92:a8:e0:4f:82:59:48:d1:98:eb:34:7f:
        39:f4:4b:a1:8a:50:ac:d7:ee:68:52:0c:df:e4:f2:97:06:0a:
        ef:02:85:97:54:02:7c:07:55:72:f7:e9:9d:03:88:00:ae:a7:
        32:58:2b:ff:14:e3:08:e4:96:3b:94:18:cc:57:e7:7f:63:69:
        f6:bf:10:61:c7:42:1c:9a:c7:c9:62:0c:e9:e9:b9:cf:06:19:
        d1:07:f5:1b:84:42:e0:b5:06:3e:1c:bc:9f:36:9d:37:9c:16:
        9a:2f:91:e4:67:5b:9c:93:37:5b:27:b8:0d:c8:1d:c6:e8:51:
        91:d5:13:44:23:80:e0:ab:f2:ac:d7:5f:61:35:00:09:27:d4:
        69:e5:7c:ba:a1:93:32:89:be:c2:fe:b2:1d:7c:14:54:73:ec:
        e3:d7:e7:f8:65:bc:95:09:19:82:a2:94:f9:51:d0:57:d0:0a:
        f2:3a:86:d8:b2:42:e6:49:7a:ff:2f:02:5f:76:ec:0e:62:15:
        a8:80:52:a3
-----BEGIN CERTIFICATE-----
MIIDgjCCAmqgAwIBAgIQRW4zxaFhVIyVx3+LXQdeQzANBgkqhkiG9w0BAQsFADAb
MRkwFwYDVQQDDBBkZXZvcHNAbWFnaS5ibHVlMB4XDTI0MTAyNzExMjIxNFoXDTI5
MTAyNjExMjIxNFowETEPMA0GA1UEAwwGc2VydmVyMIIBIjANBgkqhkiG9w0BAQEF
AAOCAQ8AMIIBCgKCAQEAoVQgj/2ddM+0e4BtZ98zrEoTWz5It4IrhL3Ydaw+QvMy
crBxuXt9zAE/smCvNtD5UU/sUQg7MbXj8gVJUl0YXmKRHE0L1LddTpso3ecc5eIm
i11Ynx+S0DplBJzJTs5g00P9jmmmlqspaL2XBERaHSz+q589niX8LCfwUiMNw6yw
p95vPsoG34sJmiPZKSyEA4lbK/XT9Bfmel1JYbGjYzQ8wuQvPME91AhAo1vOEX9E
hrgV45Ko4xpcAhRBSLpWPGmQM5Yw4VhzgRjUlVj1HAuRbDfoY9goSWnzXbI1pc9I
6cntQQkFIXzZ5rQ1pX9gK1HIKIdgFPDEgd+OgVjMpwIDAQABo4HLMIHIMAkGA1Ud
EwQCMAAwHQYDVR0OBBYEFOCfDUeGNAbfoKk4rVSQBi00outGMFYGA1UdIwRPME2A
FABjUSR48zVNujq+hOUkg81zv137oR+kHTAbMRkwFwYDVQQDDBBkZXZvcHNAbWFn
aS5ibHVlghRYTkmDavj6ymoF+kMsSWXo7ZiZnjATBgNVHSUEDDAKBggrBgEFBQcD
ATALBgNVHQ8EBAMCBaAwIgYDVR0RBBswGYIKKi5tYWdpLnZwboILKi5tYWdpLmJs
dWUwDQYJKoZIhvcNAQELBQADggEBAGm26R4O660UB7BjGZdbxEuWdiMZOg02EbaA
yfWNAq1dgFykXRBda+ieOyqXiABh8r1dJZ1gWOBnF5rZGpKo4E+CWUjRmOs0fzn0
S6GKUKzX7mhSDN/k8pcGCu8ChZdUAnwHVXL36Z0DiACupzJYK/8U4wjkljuUGMxX
539jafa/EGHHQhyax8liDOnpuc8GGdEH9RuEQuC1Bj4cvJ82nTecFpovkeRnW5yT
N1snuA3IHcboUZHVE0QjgOCr8qzXX2E1AAkn1GnlfLqhkzKJvsL+sh18FFRz7OPX
5/hlvJUJGYKilPlR0FfQCvI6htiyQuZJev8vAl927A5iFaiAUqM=
-----END CERTIFICATE-----
