Certificate:
    Data:
        Version: 3 (0x2)
        Serial Number:
            96:8e:9a:5e:d6:e3:cc:a9:a7:8e:2c:da:7a:e7:91:9c
        Signature Algorithm: sha256WithRSAEncryption
        Issuer: CN=devops@magi.blue
        Validity
            Not Before: Dec  7 14:29:43 2024 GMT
            Not After : Dec  6 14:29:43 2029 GMT
        Subject: CN=server
        Subject Public Key Info:
            Public Key Algorithm: rsaEncryption
                Public-Key: (2048 bit)
                Modulus:
                    00:96:05:22:19:e4:b5:a5:ef:e4:b0:e9:da:51:96:
                    da:99:2e:02:7b:1a:6a:e5:df:7a:16:83:66:3a:fb:
                    b5:40:e4:2c:d8:4d:64:04:25:82:e0:12:fd:5e:90:
                    24:ae:fc:ac:cd:5d:a9:ca:5d:d2:7c:46:80:a0:f0:
                    c5:b4:73:23:8c:db:c3:a4:3f:58:08:8d:36:1d:6e:
                    5d:f0:2f:55:6d:d5:a9:4d:04:45:1c:ff:64:cc:a3:
                    89:e9:52:6d:ce:29:a8:b2:cc:c0:ff:37:73:66:ad:
                    28:4e:76:b8:c6:6e:2a:f4:59:37:0b:9c:fd:d3:df:
                    7f:e7:d9:05:2a:9d:8a:05:b8:e4:b1:5e:82:b2:5f:
                    83:c3:87:6b:c3:26:47:cc:e3:89:34:47:8d:e9:98:
                    6e:43:37:29:59:d5:44:de:0f:9c:74:80:fd:7a:6c:
                    43:d2:f0:c6:e3:2b:ee:9c:3f:8a:e0:3f:b1:5b:d4:
                    e1:90:22:f8:80:9a:60:ac:42:42:56:44:f7:aa:ae:
                    f0:9d:e2:24:a1:b0:65:03:c6:83:d1:71:a9:d3:6b:
                    db:f0:92:cf:53:fc:c8:42:06:8d:ca:dd:53:a8:06:
                    07:2d:4e:22:73:37:f3:41:6c:d0:15:74:65:b6:e3:
                    5a:fe:3c:75:92:64:9c:e5:5d:06:36:80:3c:96:fd:
                    23:93
                Exponent: 65537 (0x10001)
        X509v3 extensions:
            X509v3 Basic Constraints: 
                CA:FALSE
            X509v3 Subject Key Identifier: 
                FB:BC:B1:33:03:1A:2B:3E:37:7E:3E:1A:7E:D4:52:16:78:13:15:CD
            X509v3 Authority Key Identifier: 
                keyid:00:63:51:24:78:F3:35:4D:BA:3A:BE:84:E5:24:83:CD:73:BF:5D:FB
                DirName:/CN=devops@magi.blue
                serial:58:4E:49:83:6A:F8:FA:CA:6A:05:FA:43:2C:49:65:E8:ED:98:99:9E
            X509v3 Extended Key Usage: 
                TLS Web Server Authentication
            X509v3 Key Usage: 
                Digital Signature, Key Encipherment
            X509v3 Subject Alternative Name: 
                DNS:magi.lan, DNS:magi.vpn, DNS:magi.blue, DNS:*.magi.lan, DNS:*.magi.vpn, DNS:*.magi.blue
    Signature Algorithm: sha256WithRSAEncryption
    Signature Value:
        62:56:a5:3a:a0:53:5c:e4:2f:ad:e1:60:d3:aa:b3:cd:f1:34:
        2d:e9:f2:c8:61:ba:8c:49:b6:2c:ee:be:12:15:2f:8f:78:01:
        16:b2:9a:d3:3f:c3:47:19:eb:0b:f9:0f:f4:de:b1:d9:18:9c:
        f4:ef:7a:6e:2f:a2:a8:1a:15:d5:44:20:9e:b8:91:0a:e4:27:
        2a:e5:44:c2:e2:44:a4:e5:72:52:4b:05:3e:b2:93:05:da:70:
        a9:9c:41:10:4d:7e:4f:f6:e5:eb:52:bc:f6:60:15:02:35:f1:
        70:d8:25:4d:63:0f:9e:11:b5:c5:72:04:87:7e:12:4f:9d:7f:
        75:f5:e6:3d:62:6c:db:64:f4:3b:9d:8b:04:3d:45:38:c5:61:
        a5:64:65:1d:cd:96:47:ed:ca:d9:b5:7e:72:0a:bf:b8:3b:e4:
        b9:af:65:be:f1:d5:82:32:71:ce:d5:12:51:d0:ba:11:4c:90:
        75:f1:a3:1f:cc:19:ab:81:0f:47:0b:83:af:73:83:21:4d:34:
        5f:ea:68:f4:ba:6f:e1:f7:31:be:58:18:d6:0e:6b:8b:6f:f9:
        10:43:07:45:de:dd:01:ef:a8:c7:ca:c1:c2:a9:4d:18:a5:7e:
        77:b4:47:ce:30:d8:fd:cd:8c:4f:04:f1:9b:27:a4:6c:86:a3:
        8f:2a:54:02
-----BEGIN CERTIFICATE-----
MIIDrjCCApagAwIBAgIRAJaOml7W48ypp44s2nrnkZwwDQYJKoZIhvcNAQELBQAw
GzEZMBcGA1UEAwwQZGV2b3BzQG1hZ2kuYmx1ZTAeFw0yNDEyMDcxNDI5NDNaFw0y
OTEyMDYxNDI5NDNaMBExDzANBgNVBAMMBnNlcnZlcjCCASIwDQYJKoZIhvcNAQEB
BQADggEPADCCAQoCggEBAJYFIhnktaXv5LDp2lGW2pkuAnsaauXfehaDZjr7tUDk
LNhNZAQlguAS/V6QJK78rM1dqcpd0nxGgKDwxbRzI4zbw6Q/WAiNNh1uXfAvVW3V
qU0ERRz/ZMyjielSbc4pqLLMwP83c2atKE52uMZuKvRZNwuc/dPff+fZBSqdigW4
5LFegrJfg8OHa8MmR8zjiTRHjemYbkM3KVnVRN4PnHSA/XpsQ9LwxuMr7pw/iuA/
sVvU4ZAi+ICaYKxCQlZE96qu8J3iJKGwZQPGg9FxqdNr2/CSz1P8yEIGjcrdU6gG
By1OInM380Fs0BV0ZbbjWv48dZJknOVdBjaAPJb9I5MCAwEAAaOB9jCB8zAJBgNV
HRMEAjAAMB0GA1UdDgQWBBT7vLEzAxorPjd+Php+1FIWeBMVzTBWBgNVHSMETzBN
gBQAY1EkePM1Tbo6voTlJIPNc79d+6EfpB0wGzEZMBcGA1UEAwwQZGV2b3BzQG1h
Z2kuYmx1ZYIUWE5Jg2r4+spqBfpDLEll6O2YmZ4wEwYDVR0lBAwwCgYIKwYBBQUH
AwEwCwYDVR0PBAQDAgWgME0GA1UdEQRGMESCCG1hZ2kubGFugghtYWdpLnZwboIJ
bWFnaS5ibHVlggoqLm1hZ2kubGFuggoqLm1hZ2kudnBuggsqLm1hZ2kuYmx1ZTAN
BgkqhkiG9w0BAQsFAAOCAQEAYlalOqBTXOQvreFg06qzzfE0LenyyGG6jEm2LO6+
EhUvj3gBFrKa0z/DRxnrC/kP9N6x2Ric9O96bi+iqBoV1UQgnriRCuQnKuVEwuJE
pOVyUksFPrKTBdpwqZxBEE1+T/bl61K89mAVAjXxcNglTWMPnhG1xXIEh34ST51/
dfXmPWJs22T0O52LBD1FOMVhpWRlHc2WR+3K2bV+cgq/uDvkua9lvvHVgjJxztUS
UdC6EUyQdfGjH8wZq4EPRwuDr3ODIU00X+po9Lpv4fcxvlgY1g5ri2/5EEMHRd7d
Ae+ox8rBwqlNGKV+d7RHzjDY/c2MTwTxmyekbIajjypUAg==
-----END CERTIFICATE-----
